target datalayout = "e-m:e-p270:32:32-p271:32:32-p272:64:64-i64:64-i128:128-f80:128-n8:16:32:64-S128"
target triple = "x86_64-pc-linux-gnu"

%struct.methoddata_merge = type { %struct.gmx_ana_pos_t, %struct.gmx_ana_pos_t, i32, [4 x i8] }
%struct.gmx_ana_pos_t = type <{ ptr, ptr, ptr, %struct.gmx_ana_indexmap_t, i32, [4 x i8] }>
%struct.gmx_ana_indexmap_t = type { i32, ptr, ptr, %struct.t_blocka, ptr, %struct.t_blocka, i8 }
%struct.t_blocka = type { i32, ptr, i32, ptr, i32, i32 }

; Function Attrs: inlinehint mustprogress nounwind uwtable
define linkonce_odr void @_ZN16methoddata_mergeD2Ev(ptr noundef nonnull align 8 dereferenceable(308) %0) unnamed_addr #9 comdat align 2 {
  %2 = alloca ptr, align 8
  store ptr %0, ptr %2, align 8, !tbaa !11
  %3 = load ptr, ptr %2, align 8
  %4 = getelementptr inbounds nuw %struct.methoddata_merge, ptr %3, i32 0, i32 1
  call void @_ZN13gmx_ana_pos_tD1Ev(ptr noundef nonnull align 8 dereferenceable(148) %4) #18
  %5 = getelementptr inbounds nuw %struct.methoddata_merge, ptr %3, i32 0, i32 0
  call void @_ZN13gmx_ana_pos_tD1Ev(ptr noundef nonnull align 8 dereferenceable(148) %5) #18
  ret void
}

; Function Attrs: mustprogress nounwind uwtable
define internal void @_ZL15free_data_mergePv(ptr noundef %0) #1 {
  %2 = alloca ptr, align 8
  %3 = alloca ptr, align 8
  store ptr %0, ptr %2, align 8, !tbaa !25
  call void @llvm.lifetime.start.p0(i64 8, ptr %3) #18
  %4 = load ptr, ptr %2, align 8, !tbaa !25
  store ptr %4, ptr %3, align 8, !tbaa !11
  %5 = load ptr, ptr %3, align 8, !tbaa !11
  %6 = icmp eq ptr %5, null
  br i1 %6, label %8, label %7

7:                                                ; preds = %1
  call void @_ZN16methoddata_mergeD2Ev(ptr noundef nonnull align 8 dereferenceable(308) %5) #18
  call void @_ZdlPvm(ptr noundef %5, i64 noundef 312) #20
  br label %8

8:                                                ; preds = %7, %1
  call void @llvm.lifetime.end.p0(i64 8, ptr %3) #18
  ret void
}