; Function Attrs: mustprogress nounwind uwtable
define internal void @_ZL15free_data_mergePv(ptr noundef %0) #1 {
  %2 = icmp eq ptr %0, null
  br i1 %2, label %5, label %3

3:                                                ; preds = %1
  %4 = getelementptr inbounds nuw i8, ptr %0, i64 152
  tail call void @_ZN13gmx_ana_pos_tD1Ev(ptr noundef nonnull align 8 dereferenceable(148) %4) #17
  tail call void @_ZN13gmx_ana_pos_tD1Ev(ptr noundef nonnull align 8 dereferenceable(308) %0) #17
  tail call void @_ZdlPvm(ptr noundef nonnull %0, i64 noundef 312) #18
  br label %5

5:                                                ; preds = %3, %1
  ret void
}